target datalayout = "e-m:e-p270:32:32-p271:32:32-p272:64:64-i64:64-i128:128-f80:128-n8:16:32:64-S128"
target triple = "x86_64-pc-linux-gnu"

%struct.settings = type { i64, i32, i32, i32, ptr, i32, i32, i32, ptr, ptr, i32, double, i32, i32, i32, i8, i32, i32, i8, i32, i32, i32, i32, i32, i32, i8, i8, i8, i8, i8, i8, i8, i32, i32, double, double, i32, i32, i8, i32, i8, i8, ptr, i32, i32, i32, i32, double, double, i32, i8, i32, i32, i32, i32, i32, i8, i8, i8, ptr, i32, i32, i32, i32, i32, i32, i32, i32, i32, i32, double, i8, i32, i32, ptr, i32 }
%struct.conn = type { ptr, i32, i8, i8, i8, i8, i8, i8, i8, i8, ptr, i32, i32, i32, %struct.event, i16, i16, ptr, ptr, i32, i32, ptr, ptr, ptr, i32, ptr, i32, i32, i32, i32, i32, i32, i32, %struct.sockaddr_in6, i32, i8, %struct.anon.8, %union.protocol_binary_request_header, i64, i64, i16, i32, i32, ptr, ptr, ptr, ptr, ptr, ptr }
%struct.event = type { %struct.event_callback, %union.anon.0, i32, ptr, %union.anon.2, i16, i16, %struct.timeval }
%struct.event_callback = type { %struct.anon, i16, i8, i8, %union.anon, ptr }
%struct.anon = type { ptr, ptr }
%union.anon = type { ptr }
%union.anon.0 = type { %struct.anon.1 }
%struct.anon.1 = type { ptr, ptr }
%union.anon.2 = type { %struct.anon.3 }
%struct.anon.3 = type { %struct.anon.4, %struct.timeval }
%struct.anon.4 = type { ptr, ptr }
%struct.timeval = type { i64, i64 }
%struct.sockaddr_in6 = type { i16, i16, i32, %struct.in6_addr, i32 }
%struct.in6_addr = type { %union.anon.7 }
%union.anon.7 = type { [4 x i32] }
%struct.anon.8 = type { ptr, i64, i64 }
%union.protocol_binary_request_header = type { %struct.anon.9 }
%struct.anon.9 = type { i8, i8, i16, i8, i8, i16, i32, i32, i64 }
%struct.token_s = type { ptr, i64 }

@settings = external global %struct.settings, align 8
@.str.15 = private unnamed_addr constant [6 x i8] c"ERROR\00", align 1
@.str.45 = private unnamed_addr constant [9 x i8] c"extstore\00", align 1
@.str.51 = private unnamed_addr constant [37 x i8] c"CLIENT_ERROR bad command line format\00", align 1
@.str.86 = private unnamed_addr constant [30 x i8] c"CLIENT_ERROR bad command line\00", align 1
@.str.87 = private unnamed_addr constant [6 x i8] c"reset\00", align 1
@.str.88 = private unnamed_addr constant [6 x i8] c"RESET\00", align 1
@.str.89 = private unnamed_addr constant [7 x i8] c"detail\00", align 1
@.str.90 = private unnamed_addr constant [1 x i8] zeroinitializer, align 1
@.str.91 = private unnamed_addr constant [9 x i8] c"settings\00", align 1
@.str.92 = private unnamed_addr constant [10 x i8] c"cachedump\00", align 1
@.str.93 = private unnamed_addr constant [41 x i8] c"CLIENT_ERROR stats cachedump not allowed\00", align 1
@.str.94 = private unnamed_addr constant [29 x i8] c"CLIENT_ERROR Illegal slab id\00", align 1
@.str.95 = private unnamed_addr constant [6 x i8] c"conns\00", align 1
@.str.96 = private unnamed_addr constant [41 x i8] c"SERVER_ERROR out of memory writing stats\00", align 1

; Function Attrs: nounwind uwtable
define internal void @process_stat(ptr noundef %0, ptr noundef %1, i64 noundef %2) #0 {
  %4 = alloca ptr, align 8
  %5 = alloca ptr, align 8
  %6 = alloca i64, align 8
  %7 = alloca ptr, align 8
  %8 = alloca i32, align 4
  %9 = alloca ptr, align 8
  %10 = alloca i32, align 4
  %11 = alloca i32, align 4
  %12 = alloca i32, align 4
  store ptr %0, ptr %4, align 8, !tbaa !4
  store ptr %1, ptr %5, align 8, !tbaa !77
  store i64 %2, ptr %6, align 8, !tbaa !44
  call void @llvm.lifetime.start.p0(i64 8, ptr %7) #8
  %13 = load ptr, ptr %5, align 8, !tbaa !77
  %14 = getelementptr inbounds %struct.token_s, ptr %13, i64 1
  %15 = getelementptr inbounds nuw %struct.token_s, ptr %14, i32 0, i32 0
  %16 = load ptr, ptr %15, align 8, !tbaa !70
  store ptr %16, ptr %7, align 8, !tbaa !62
  %17 = load i64, ptr %6, align 8, !tbaa !44
  %18 = icmp ult i64 %17, 2
  br i1 %18, label %19, label %21

19:                                               ; preds = %3
  %20 = load ptr, ptr %4, align 8, !tbaa !4
  call void @out_string(ptr noundef %20, ptr noundef @.str.86)
  store i32 1, ptr %8, align 4
  br label %172

21:                                               ; preds = %3
  %22 = load i64, ptr %6, align 8, !tbaa !44
  %23 = icmp eq i64 %22, 2
  br i1 %23, label %24, label %28

24:                                               ; preds = %21
  %25 = load ptr, ptr %4, align 8, !tbaa !4
  call void @server_stats(ptr noundef @append_stats, ptr noundef %25)
  %26 = load ptr, ptr %4, align 8, !tbaa !4
  %27 = call zeroext i1 @get_stats(ptr noundef null, i32 noundef 0, ptr noundef @append_stats, ptr noundef %26)
  br label %148

28:                                               ; preds = %21
  %29 = load ptr, ptr %7, align 8, !tbaa !62
  %30 = call i32 @strcmp(ptr noundef %29, ptr noundef @.str.87) #9
  %31 = icmp eq i32 %30, 0
  br i1 %31, label %32, label %34

32:                                               ; preds = %28
  call void @stats_reset()
  %33 = load ptr, ptr %4, align 8, !tbaa !4
  call void @out_string(ptr noundef %33, ptr noundef @.str.88)
  store i32 1, ptr %8, align 4
  br label %172

34:                                               ; preds = %28
  %35 = load ptr, ptr %7, align 8, !tbaa !62
  %36 = call i32 @strcmp(ptr noundef %35, ptr noundef @.str.89) #9
  %37 = icmp eq i32 %36, 0
  br i1 %37, label %38, label %50

38:                                               ; preds = %34
  %39 = load i64, ptr %6, align 8, !tbaa !44
  %40 = icmp ult i64 %39, 4
  br i1 %40, label %41, label %43

41:                                               ; preds = %38
  %42 = load ptr, ptr %4, align 8, !tbaa !4
  call void @process_stats_detail(ptr noundef %42, ptr noundef @.str.90)
  br label %49

43:                                               ; preds = %38
  %44 = load ptr, ptr %4, align 8, !tbaa !4
  %45 = load ptr, ptr %5, align 8, !tbaa !77
  %46 = getelementptr inbounds %struct.token_s, ptr %45, i64 2
  %47 = getelementptr inbounds nuw %struct.token_s, ptr %46, i32 0, i32 0
  %48 = load ptr, ptr %47, align 8, !tbaa !70
  call void @process_stats_detail(ptr noundef %44, ptr noundef %48)
  br label %49

49:                                               ; preds = %43, %41
  store i32 1, ptr %8, align 4
  br label %172

50:                                               ; preds = %34
  %51 = load ptr, ptr %7, align 8, !tbaa !62
  %52 = call i32 @strcmp(ptr noundef %51, ptr noundef @.str.91) #9
  %53 = icmp eq i32 %52, 0
  br i1 %53, label %54, label %56

54:                                               ; preds = %50
  %55 = load ptr, ptr %4, align 8, !tbaa !4
  call void @process_stat_settings(ptr noundef @append_stats, ptr noundef %55)
  br label %145

56:                                               ; preds = %50
  %57 = load ptr, ptr %7, align 8, !tbaa !62
  %58 = call i32 @strcmp(ptr noundef %57, ptr noundef @.str.92) #9
  %59 = icmp eq i32 %58, 0
  br i1 %59, label %60, label %97

60:                                               ; preds = %56
  call void @llvm.lifetime.start.p0(i64 8, ptr %9) #8
  call void @llvm.lifetime.start.p0(i64 4, ptr %10) #8
  call void @llvm.lifetime.start.p0(i64 4, ptr %11) #8
  call void @llvm.lifetime.start.p0(i64 4, ptr %12) #8
  store i32 0, ptr %12, align 4, !tbaa !30
  %61 = load i8, ptr getelementptr inbounds nuw (%struct.settings, ptr @settings, i32 0, i32 41), align 1, !tbaa !132, !range !40, !noundef !41
  %62 = trunc i8 %61 to i1
  br i1 %62, label %65, label %63

63:                                               ; preds = %60
  %64 = load ptr, ptr %4, align 8, !tbaa !4
  call void @out_string(ptr noundef %64, ptr noundef @.str.93)
  store i32 1, ptr %8, align 4
  br label %96

65:                                               ; preds = %60
  %66 = load i64, ptr %6, align 8, !tbaa !44
  %67 = icmp ult i64 %66, 5
  br i1 %67, label %68, label %70

68:                                               ; preds = %65
  %69 = load ptr, ptr %4, align 8, !tbaa !4
  call void @out_string(ptr noundef %69, ptr noundef @.str.86)
  store i32 1, ptr %8, align 4
  br label %96

70:                                               ; preds = %65
  %71 = load ptr, ptr %5, align 8, !tbaa !77
  %72 = getelementptr inbounds %struct.token_s, ptr %71, i64 2
  %73 = getelementptr inbounds nuw %struct.token_s, ptr %72, i32 0, i32 0
  %74 = load ptr, ptr %73, align 8, !tbaa !70
  %75 = call zeroext i1 @safe_strtoul(ptr noundef %74, ptr noundef %11)
  br i1 %75, label %76, label %82

76:                                               ; preds = %70
  %77 = load ptr, ptr %5, align 8, !tbaa !77
  %78 = getelementptr inbounds %struct.token_s, ptr %77, i64 3
  %79 = getelementptr inbounds nuw %struct.token_s, ptr %78, i32 0, i32 0
  %80 = load ptr, ptr %79, align 8, !tbaa !70
  %81 = call zeroext i1 @safe_strtoul(ptr noundef %80, ptr noundef %12)
  br i1 %81, label %84, label %82

82:                                               ; preds = %76, %70
  %83 = load ptr, ptr %4, align 8, !tbaa !4
  call void @out_string(ptr noundef %83, ptr noundef @.str.51)
  store i32 1, ptr %8, align 4
  br label %96

84:                                               ; preds = %76
  %85 = load i32, ptr %11, align 4, !tbaa !30
  %86 = icmp uge i32 %85, 64
  br i1 %86, label %87, label %89

87:                                               ; preds = %84
  %88 = load ptr, ptr %4, align 8, !tbaa !4
  call void @out_string(ptr noundef %88, ptr noundef @.str.94)
  store i32 1, ptr %8, align 4
  br label %96

89:                                               ; preds = %84
  %90 = load i32, ptr %11, align 4, !tbaa !30
  %91 = load i32, ptr %12, align 4, !tbaa !30
  %92 = call ptr @item_cachedump(i32 noundef %90, i32 noundef %91, ptr noundef %10)
  store ptr %92, ptr %9, align 8, !tbaa !62
  %93 = load ptr, ptr %4, align 8, !tbaa !4
  %94 = load ptr, ptr %9, align 8, !tbaa !62
  %95 = load i32, ptr %10, align 4, !tbaa !30
  call void @write_and_free(ptr noundef %93, ptr noundef %94, i32 noundef %95)
  store i32 1, ptr %8, align 4
  br label %96

96:                                               ; preds = %89, %87, %82, %68, %63
  call void @llvm.lifetime.end.p0(i64 4, ptr %12) #8
  call void @llvm.lifetime.end.p0(i64 4, ptr %11) #8
  call void @llvm.lifetime.end.p0(i64 4, ptr %10) #8
  call void @llvm.lifetime.end.p0(i64 8, ptr %9) #8
  br label %172

97:                                               ; preds = %56
  %98 = load ptr, ptr %7, align 8, !tbaa !62
  %99 = call i32 @strcmp(ptr noundef %98, ptr noundef @.str.95) #9
  %100 = icmp eq i32 %99, 0
  br i1 %100, label %101, label %103

101:                                              ; preds = %97
  %102 = load ptr, ptr %4, align 8, !tbaa !4
  call void @process_stats_conns(ptr noundef @append_stats, ptr noundef %102)
  br label %143

103:                                              ; preds = %97
  %104 = load ptr, ptr %7, align 8, !tbaa !62
  %105 = call i32 @strcmp(ptr noundef %104, ptr noundef @.str.45) #9
  %106 = icmp eq i32 %105, 0
  br i1 %106, label %107, label %109

107:                                              ; preds = %103
  %108 = load ptr, ptr %4, align 8, !tbaa !4
  call void @process_extstore_stats(ptr noundef @append_stats, ptr noundef %108)
  br label %142

109:                                              ; preds = %103
  %110 = load ptr, ptr %7, align 8, !tbaa !62
  %111 = load ptr, ptr %7, align 8, !tbaa !62
  %112 = call i64 @strlen(ptr noundef %111) #9
  %113 = trunc i64 %112 to i32
  %114 = load ptr, ptr %4, align 8, !tbaa !4
  %115 = call zeroext i1 @get_stats(ptr noundef %110, i32 noundef %113, ptr noundef @append_stats, ptr noundef %114)
  br i1 %115, label %116, label %139

116:                                              ; preds = %109
  %117 = load ptr, ptr %4, align 8, !tbaa !4
  %118 = getelementptr inbounds nuw %struct.conn, ptr %117, i32 0, i32 36
  %119 = getelementptr inbounds nuw %struct.anon.8, ptr %118, i32 0, i32 0
  %120 = load ptr, ptr %119, align 8, !tbaa !133
  %121 = icmp eq ptr %120, null
  br i1 %121, label %122, label %124

122:                                              ; preds = %116
  %123 = load ptr, ptr %4, align 8, !tbaa !4
  call void @out_of_memory(ptr noundef %123, ptr noundef @.str.96)
  br label %138

124:                                              ; preds = %116
  %125 = load ptr, ptr %4, align 8, !tbaa !4
  %126 = load ptr, ptr %4, align 8, !tbaa !4
  %127 = getelementptr inbounds nuw %struct.conn, ptr %126, i32 0, i32 36
  %128 = getelementptr inbounds nuw %struct.anon.8, ptr %127, i32 0, i32 0
  %129 = load ptr, ptr %128, align 8, !tbaa !133
  %130 = load ptr, ptr %4, align 8, !tbaa !4
  %131 = getelementptr inbounds nuw %struct.conn, ptr %130, i32 0, i32 36
  %132 = getelementptr inbounds nuw %struct.anon.8, ptr %131, i32 0, i32 2
  %133 = load i64, ptr %132, align 8, !tbaa !134
  %134 = trunc i64 %133 to i32
  call void @write_and_free(ptr noundef %125, ptr noundef %129, i32 noundef %134)
  %135 = load ptr, ptr %4, align 8, !tbaa !4
  %136 = getelementptr inbounds nuw %struct.conn, ptr %135, i32 0, i32 36
  %137 = getelementptr inbounds nuw %struct.anon.8, ptr %136, i32 0, i32 0
  store ptr null, ptr %137, align 8, !tbaa !133
  br label %138

138:                                              ; preds = %124, %122
  br label %141

139:                                              ; preds = %109
  %140 = load ptr, ptr %4, align 8, !tbaa !4
  call void @out_string(ptr noundef %140, ptr noundef @.str.15)
  br label %141

141:                                              ; preds = %139, %138
  store i32 1, ptr %8, align 4
  br label %172

142:                                              ; preds = %107
  br label %143

143:                                              ; preds = %142, %101
  br label %144

144:                                              ; preds = %143
  br label %145

145:                                              ; preds = %144, %54
  br label %146

146:                                              ; preds = %145
  br label %147

147:                                              ; preds = %146
  br label %148

148:                                              ; preds = %147, %24
  %149 = load ptr, ptr %4, align 8, !tbaa !4
  call void @append_stats(ptr noundef null, i16 noundef zeroext 0, ptr noundef null, i32 noundef 0, ptr noundef %149)
  %150 = load ptr, ptr %4, align 8, !tbaa !4
  %151 = getelementptr inbounds nuw %struct.conn, ptr %150, i32 0, i32 36
  %152 = getelementptr inbounds nuw %struct.anon.8, ptr %151, i32 0, i32 0
  %153 = load ptr, ptr %152, align 8, !tbaa !133
  %154 = icmp eq ptr %153, null
  br i1 %154, label %155, label %157

155:                                              ; preds = %148
  %156 = load ptr, ptr %4, align 8, !tbaa !4
  call void @out_of_memory(ptr noundef %156, ptr noundef @.str.96)
  br label %171

157:                                              ; preds = %148
  %158 = load ptr, ptr %4, align 8, !tbaa !4
  %159 = load ptr, ptr %4, align 8, !tbaa !4
  %160 = getelementptr inbounds nuw %struct.conn, ptr %159, i32 0, i32 36
  %161 = getelementptr inbounds nuw %struct.anon.8, ptr %160, i32 0, i32 0
  %162 = load ptr, ptr %161, align 8, !tbaa !133
  %163 = load ptr, ptr %4, align 8, !tbaa !4
  %164 = getelementptr inbounds nuw %struct.conn, ptr %163, i32 0, i32 36
  %165 = getelementptr inbounds nuw %struct.anon.8, ptr %164, i32 0, i32 2
  %166 = load i64, ptr %165, align 8, !tbaa !134
  %167 = trunc i64 %166 to i32
  call void @write_and_free(ptr noundef %158, ptr noundef %162, i32 noundef %167)
  %168 = load ptr, ptr %4, align 8, !tbaa !4
  %169 = getelementptr inbounds nuw %struct.conn, ptr %168, i32 0, i32 36
  %170 = getelementptr inbounds nuw %struct.anon.8, ptr %169, i32 0, i32 0
  store ptr null, ptr %170, align 8, !tbaa !133
  br label %171

171:                                              ; preds = %157, %155
  store i32 0, ptr %8, align 4
  br label %172

172:                                              ; preds = %171, %141, %96, %49, %32, %19
  call void @llvm.lifetime.end.p0(i64 8, ptr %7) #8
  %173 = load i32, ptr %8, align 4
  switch i32 %173, label %175 [
    i32 0, label %174
    i32 1, label %174
  ]

174:                                              ; preds = %172, %172
  ret void

175:                                              ; preds = %172
  unreachable
}