; Function Attrs: nounwind uwtable
define internal fastcc void @process_stat(ptr noundef %0, ptr noundef nonnull readonly captures(none) %1, i64 noundef range(i64 2, 0) %2) unnamed_addr #0 {
  %4 = alloca i32, align 4
  %5 = alloca i32, align 4
  %6 = alloca i32, align 4
  %7 = getelementptr inbounds nuw i8, ptr %1, i64 16
  %8 = load ptr, ptr %7, align 8, !tbaa !66
  %9 = icmp eq i64 %2, 2
  br i1 %9, label %10, label %12

10:                                               ; preds = %3
  tail call void @server_stats(ptr noundef nonnull @append_stats, ptr noundef %0) #13
  %11 = tail call zeroext i1 @get_stats(ptr noundef null, i32 noundef 0, ptr noundef nonnull @append_stats, ptr noundef %0) #13
  br label %79

12:                                               ; preds = %3
  %13 = tail call i32 @strcmp(ptr noundef nonnull dereferenceable(1) %8, ptr noundef nonnull dereferenceable(6) @.str.87) #14
  %14 = icmp eq i32 %13, 0
  br i1 %14, label %15, label %16

15:                                               ; preds = %12
  tail call void @stats_reset() #13
  tail call void @out_string(ptr noundef %0, ptr noundef nonnull @.str.88) #13
  br label %88

16:                                               ; preds = %12
  %17 = tail call i32 @strcmp(ptr noundef nonnull dereferenceable(1) %8, ptr noundef nonnull dereferenceable(7) @.str.89) #14
  %18 = icmp eq i32 %17, 0
  br i1 %18, label %19, label %25

19:                                               ; preds = %16
  %20 = icmp ult i64 %2, 4
  br i1 %20, label %21, label %22

21:                                               ; preds = %19
  tail call fastcc void @process_stats_detail(ptr noundef %0, ptr noundef nonnull @.str.90)
  br label %88

22:                                               ; preds = %19
  %23 = getelementptr inbounds nuw i8, ptr %1, i64 32
  %24 = load ptr, ptr %23, align 8, !tbaa !66
  tail call fastcc void @process_stats_detail(ptr noundef %0, ptr noundef %24)
  br label %88

25:                                               ; preds = %16
  %26 = tail call i32 @strcmp(ptr noundef nonnull dereferenceable(1) %8, ptr noundef nonnull dereferenceable(9) @.str.91) #14
  %27 = icmp eq i32 %26, 0
  br i1 %27, label %28, label %29

28:                                               ; preds = %25
  tail call void @process_stat_settings(ptr noundef nonnull @append_stats, ptr noundef %0) #13
  br label %79

29:                                               ; preds = %25
  %30 = tail call i32 @strcmp(ptr noundef nonnull dereferenceable(1) %8, ptr noundef nonnull dereferenceable(10) @.str.92) #14
  %31 = icmp eq i32 %30, 0
  br i1 %31, label %32, label %57

32:                                               ; preds = %29
  call void @llvm.lifetime.start.p0(i64 4, ptr nonnull %4) #13
  call void @llvm.lifetime.start.p0(i64 4, ptr nonnull %5) #13
  call void @llvm.lifetime.start.p0(i64 4, ptr nonnull %6) #13
  store i32 0, ptr %6, align 4, !tbaa !27
  %33 = load i8, ptr getelementptr inbounds nuw (i8, ptr @settings, i64 185), align 1, !tbaa !121, !range !37, !noundef !38
  %34 = trunc nuw i8 %33 to i1
  br i1 %34, label %36, label %35

35:                                               ; preds = %32
  tail call void @out_string(ptr noundef %0, ptr noundef nonnull @.str.93) #13
  br label %56

36:                                               ; preds = %32
  %37 = icmp ult i64 %2, 5
  br i1 %37, label %38, label %39

38:                                               ; preds = %36
  tail call void @out_string(ptr noundef %0, ptr noundef nonnull @.str.86) #13
  br label %56

39:                                               ; preds = %36
  %40 = getelementptr inbounds nuw i8, ptr %1, i64 32
  %41 = load ptr, ptr %40, align 8, !tbaa !66
  %42 = call zeroext i1 @safe_strtoul(ptr noundef %41, ptr noundef nonnull %5) #13
  br i1 %42, label %43, label %47

43:                                               ; preds = %39
  %44 = getelementptr inbounds nuw i8, ptr %1, i64 48
  %45 = load ptr, ptr %44, align 8, !tbaa !66
  %46 = call zeroext i1 @safe_strtoul(ptr noundef %45, ptr noundef nonnull %6) #13
  br i1 %46, label %48, label %47

47:                                               ; preds = %43, %39
  call void @out_string(ptr noundef %0, ptr noundef nonnull @.str.51) #13
  br label %56

48:                                               ; preds = %43
  %49 = load i32, ptr %5, align 4, !tbaa !27
  %50 = icmp ugt i32 %49, 63
  br i1 %50, label %51, label %52

51:                                               ; preds = %48
  call void @out_string(ptr noundef %0, ptr noundef nonnull @.str.94) #13
  br label %56

52:                                               ; preds = %48
  %53 = load i32, ptr %6, align 4, !tbaa !27
  %54 = call ptr @item_cachedump(i32 noundef %49, i32 noundef %53, ptr noundef nonnull %4) #13
  %55 = load i32, ptr %4, align 4, !tbaa !27
  call void @write_and_free(ptr noundef %0, ptr noundef %54, i32 noundef %55) #13
  br label %56

56:                                               ; preds = %52, %51, %47, %38, %35
  call void @llvm.lifetime.end.p0(i64 4, ptr nonnull %6) #13
  call void @llvm.lifetime.end.p0(i64 4, ptr nonnull %5) #13
  call void @llvm.lifetime.end.p0(i64 4, ptr nonnull %4) #13
  br label %88

57:                                               ; preds = %29
  %58 = tail call i32 @strcmp(ptr noundef nonnull dereferenceable(1) %8, ptr noundef nonnull dereferenceable(6) @.str.95) #14
  %59 = icmp eq i32 %58, 0
  br i1 %59, label %60, label %61

60:                                               ; preds = %57
  tail call void @process_stats_conns(ptr noundef nonnull @append_stats, ptr noundef %0) #13
  br label %79

61:                                               ; preds = %57
  %62 = tail call i32 @strcmp(ptr noundef nonnull dereferenceable(1) %8, ptr noundef nonnull dereferenceable(9) @.str.45) #14
  %63 = icmp eq i32 %62, 0
  br i1 %63, label %64, label %65

64:                                               ; preds = %61
  tail call void @process_extstore_stats(ptr noundef nonnull @append_stats, ptr noundef %0) #13
  br label %79

65:                                               ; preds = %61
  %66 = tail call i64 @strlen(ptr noundef nonnull dereferenceable(1) %8) #14
  %67 = trunc i64 %66 to i32
  %68 = tail call zeroext i1 @get_stats(ptr noundef nonnull %8, i32 noundef %67, ptr noundef nonnull @append_stats, ptr noundef %0) #13
  br i1 %68, label %69, label %78

69:                                               ; preds = %65
  %70 = getelementptr inbounds nuw i8, ptr %0, i64 312
  %71 = load ptr, ptr %70, align 8, !tbaa !122
  %72 = icmp eq ptr %71, null
  br i1 %72, label %73, label %74

73:                                               ; preds = %69
  tail call void @out_of_memory(ptr noundef nonnull %0, ptr noundef nonnull @.str.96) #13
  br label %88

74:                                               ; preds = %69
  %75 = getelementptr inbounds nuw i8, ptr %0, i64 328
  %76 = load i64, ptr %75, align 8, !tbaa !123
  %77 = trunc i64 %76 to i32
  tail call void @write_and_free(ptr noundef nonnull %0, ptr noundef nonnull %71, i32 noundef %77) #13
  store ptr null, ptr %70, align 8, !tbaa !122
  br label %88

78:                                               ; preds = %65
  tail call void @out_string(ptr noundef %0, ptr noundef nonnull @.str.15) #13
  br label %88

79:                                               ; preds = %28, %60, %64, %10
  tail call void @append_stats(ptr noundef null, i16 noundef zeroext 0, ptr noundef null, i32 noundef 0, ptr noundef %0) #13
  %80 = getelementptr inbounds nuw i8, ptr %0, i64 312
  %81 = load ptr, ptr %80, align 8, !tbaa !122
  %82 = icmp eq ptr %81, null
  br i1 %82, label %83, label %84

83:                                               ; preds = %79
  tail call void @out_of_memory(ptr noundef nonnull %0, ptr noundef nonnull @.str.96) #13
  br label %88

84:                                               ; preds = %79
  %85 = getelementptr inbounds nuw i8, ptr %0, i64 328
  %86 = load i64, ptr %85, align 8, !tbaa !123
  %87 = trunc i64 %86 to i32
  tail call void @write_and_free(ptr noundef nonnull %0, ptr noundef nonnull %81, i32 noundef %87) #13
  store ptr null, ptr %80, align 8, !tbaa !122
  br label %88

88:                                               ; preds = %83, %84, %78, %74, %73, %21, %22, %56, %15
  ret void
}